; Function Attrs: inlinehint mustprogress nounwind uwtable
define internal void @_ZN3ue212_GLOBAL__N_117gough_build_stratD0Ev(ptr noundef nonnull align 8 dereferenceable(144) initializes((0, 8)) %0) unnamed_addr #13 align 2 personality ptr @__gxx_personality_v0 {
  store ptr getelementptr inbounds nuw inrange(-16, 96) (i8, ptr @_ZTVN3ue212_GLOBAL__N_117gough_build_stratE, i64 16), ptr %0, align 8
  %2 = getelementptr inbounds nuw i8, ptr %0, i64 96
  %3 = getelementptr inbounds nuw i8, ptr %0, i64 112
  %4 = load ptr, ptr %3, align 8
  invoke void @_ZNSt8_Rb_treeIP11gough_accelSt4pairIKS1_tESt10_Select1stIS4_ESt4lessIS1_ESaIS4_EE8_M_eraseEPSt13_Rb_tree_nodeIS4_E(ptr noundef nonnull align 8 dereferenceable(48) %2, ptr noundef %4)
          to label %_ZNSt3mapIP11gough_acceltSt4lessIS1_ESaISt4pairIKS1_tEEED2Ev.exit.i unwind label %5

5:                                                ; preds = %1
  %6 = landingpad { ptr, i32 }
          catch ptr null
  %7 = extractvalue { ptr, i32 } %6, 0
  tail call void @__clang_call_terminate(ptr %7) #32
  unreachable

_ZNSt3mapIP11gough_acceltSt4lessIS1_ESaISt4pairIKS1_tEEED2Ev.exit.i: ; preds = %1
  %8 = getelementptr inbounds nuw i8, ptr %0, i64 48
  %9 = getelementptr inbounds nuw i8, ptr %0, i64 64
  %10 = load ptr, ptr %9, align 8
  invoke void @_ZNSt8_Rb_treeItSt4pairIKtN3ue222gough_accel_state_infoEESt10_Select1stIS4_ESt4lessItESaIS4_EE8_M_eraseEPSt13_Rb_tree_nodeIS4_E(ptr noundef nonnull align 8 dereferenceable(48) %8, ptr noundef %10)
          to label %_ZN3ue212_GLOBAL__N_117gough_build_stratD2Ev.exit unwind label %11

11:                                               ; preds = %_ZNSt3mapIP11gough_acceltSt4lessIS1_ESaISt4pairIKS1_tEEED2Ev.exit.i
  %12 = landingpad { ptr, i32 }
          catch ptr null
  %13 = extractvalue { ptr, i32 } %12, 0
  tail call void @__clang_call_terminate(ptr %13) #32
  unreachable

_ZN3ue212_GLOBAL__N_117gough_build_stratD2Ev.exit: ; preds = %_ZNSt3mapIP11gough_acceltSt4lessIS1_ESaISt4pairIKS1_tEEED2Ev.exit.i
  tail call void @_ZN3ue215dfa_build_stratD2Ev(ptr noundef nonnull align 8 dereferenceable(144) %0) #34
  tail call void @_ZdlPv(ptr noundef nonnull %0) #35
  ret void
}